(dp1
S'num_epochs'
p2
I3
sS'grad_clip'
p3
F5
sS'dev_file'
p4
S'data/ptb.valid.txt'
p5
sS'train_file'
p6
S'data/ptb.train.txt'
p7
sS'learning_rate'
p8
F1
sS'num_layers'
p9
I2
sS'rnn_size'
p10
I200
sS'batch_size'
p11
I20
sS'num_steps'
p12
I20
sS'decay_rate'
p13
F0.5
sS'out_vocab_size'
p14
I10000
sS'optimization'
p15
S'sgd'
p16
sS'validation_interval'
p17
I1
sS'save_dir'
p18
S'model'
p19
sS'output'
p20
S'train.log'
p21
sg19
S'lstm'
p22
sS'keep_prob'
p23
F0.5
sS'init_scale'
p24
F0.10000000000000001
s.